target datalayout = "e-m:e-p270:32:32-p271:32:32-p272:64:64-i64:64-i128:128-f80:128-n8:16:32:64-S128"
target triple = "x86_64-pc-linux-gnu"

%"class.llvm::MachineInstr" = type <{ %"class.llvm::ilist_node_with_parent", ptr, ptr, ptr, [3 x i8], %"class.llvm::ArrayRecycler<llvm::MachineOperand>::Capacity", i32, %"class.llvm::PointerSumType", %"class.llvm::DebugLoc", i32, i16, [2 x i8] }>
%"class.llvm::ilist_node_with_parent" = type { %"class.llvm::ilist_node" }
%"class.llvm::ilist_node" = type { %"class.llvm::ilist_node_impl" }
%"class.llvm::ilist_node_impl" = type { %"class.llvm::ilist_node_base" }
%"class.llvm::ilist_node_base" = type { %"class.llvm::ilist_detail::node_base_prevnext" }
%"class.llvm::ilist_detail::node_base_prevnext" = type { %"class.llvm::PointerIntPair", ptr }
%"class.llvm::PointerIntPair" = type { %"struct.llvm::detail::PunnedPointer" }
%"struct.llvm::detail::PunnedPointer" = type { [8 x i8] }
%"class.llvm::ArrayRecycler<llvm::MachineOperand>::Capacity" = type { i8 }
%"class.llvm::PointerSumType" = type { %"union.llvm::PointerSumType<llvm::MachineInstr::ExtraInfoInlineKinds, llvm::PointerSumTypeMember<0, llvm::MachineMemOperand *>, llvm::PointerSumTypeMember<1, llvm::MCSymbol *>, llvm::PointerSumTypeMember<2, llvm::MCSymbol *>, llvm::PointerSumTypeMember<3, llvm::MachineInstr::ExtraInfo *>>::StorageT" }
%"union.llvm::PointerSumType<llvm::MachineInstr::ExtraInfoInlineKinds, llvm::PointerSumTypeMember<0, llvm::MachineMemOperand *>, llvm::PointerSumTypeMember<1, llvm::MCSymbol *>, llvm::PointerSumTypeMember<2, llvm::MCSymbol *>, llvm::PointerSumTypeMember<3, llvm::MachineInstr::ExtraInfo *>>::StorageT" = type { i64 }
%"class.llvm::DebugLoc" = type { %"class.llvm::TypedTrackingMDRef" }
%"class.llvm::TypedTrackingMDRef" = type { %"class.llvm::TrackingMDRef" }
%"class.llvm::TrackingMDRef" = type { ptr }
%"class.llvm::MachineOperand" = type { i32, %union.anon, ptr, %"union.llvm::MachineOperand::ContentsUnion" }
%union.anon = type { i32 }
%"union.llvm::MachineOperand::ContentsUnion" = type { %"class.llvm::ArrayRef" }
%"class.llvm::ArrayRef" = type { ptr, i64 }
%"class.llvm::StatepointOpers" = type <{ ptr, i32, [4 x i8] }>

; Function Attrs: mustprogress nounwind uwtable
define linkonce_odr hidden noundef zeroext i1 @_ZNK4llvm14MachineOperand5isImmEv(ptr noundef nonnull align 8 dereferenceable(32) %0) #1 comdat align 2 {
  %2 = alloca ptr, align 8
  store ptr %0, ptr %2, align 8
  %3 = load ptr, ptr %2, align 8
  %4 = load i32, ptr %3, align 8
  %5 = and i32 %4, 255
  %6 = icmp eq i32 %5, 1
  ret i1 %6
}

; Function Attrs: mustprogress nounwind uwtable
define linkonce_odr hidden noundef i32 @_ZNK4llvm15StatepointOpers9getVarIdxEv(ptr noundef nonnull align 8 dereferenceable(12) %0) #1 comdat align 2 {
  %2 = alloca ptr, align 8
  store ptr %0, ptr %2, align 8
  %3 = load ptr, ptr %2, align 8
  %4 = getelementptr inbounds nuw %"class.llvm::StatepointOpers", ptr %3, i32 0, i32 0
  %5 = load ptr, ptr %4, align 8
  %6 = getelementptr inbounds nuw %"class.llvm::StatepointOpers", ptr %3, i32 0, i32 1
  %7 = load i32, ptr %6, align 8
  %8 = add i32 %7, 2
  %9 = call noundef nonnull align 8 dereferenceable(32) ptr @_ZNK4llvm12MachineInstr10getOperandEj(ptr noundef nonnull align 8 dereferenceable(70) %5, i32 noundef %8)
  %10 = call noundef i64 @_ZNK4llvm14MachineOperand6getImmEv(ptr noundef nonnull align 8 dereferenceable(32) %9)
  %11 = add nsw i64 %10, 4
  %12 = getelementptr inbounds nuw %"class.llvm::StatepointOpers", ptr %3, i32 0, i32 1
  %13 = load i32, ptr %12, align 8
  %14 = zext i32 %13 to i64
  %15 = add nsw i64 %11, %14
  %16 = trunc i64 %15 to i32
  ret i32 %16
}

; Function Attrs: mustprogress nounwind uwtable
define linkonce_odr hidden noundef i64 @_ZNK4llvm14MachineOperand6getImmEv(ptr noundef nonnull align 8 dereferenceable(32) %0) #1 comdat align 2 {
  %2 = alloca ptr, align 8
  store ptr %0, ptr %2, align 8
  %3 = load ptr, ptr %2, align 8
  %4 = getelementptr inbounds nuw %"class.llvm::MachineOperand", ptr %3, i32 0, i32 3
  %5 = load i64, ptr %4, align 8
  ret i64 %5
}

; Function Attrs: mustprogress nounwind uwtable
define linkonce_odr hidden noundef nonnull align 8 dereferenceable(32) ptr @_ZNK4llvm12MachineInstr10getOperandEj(ptr noundef nonnull align 8 dereferenceable(70) %0, i32 noundef %1) #1 comdat align 2 {
  %3 = alloca ptr, align 8
  %4 = alloca i32, align 4
  store ptr %0, ptr %3, align 8
  store i32 %1, ptr %4, align 4
  %5 = load ptr, ptr %3, align 8
  %6 = getelementptr inbounds nuw %"class.llvm::MachineInstr", ptr %5, i32 0, i32 3
  %7 = load ptr, ptr %6, align 8
  %8 = load i32, ptr %4, align 4
  %9 = zext i32 %8 to i64
  %10 = getelementptr inbounds %"class.llvm::MachineOperand", ptr %7, i64 %9
  ret ptr %10
}

; Function Attrs: mustprogress nounwind uwtable
define dso_local noundef i32 @_ZN4llvm9StackMaps17getNextMetaArgIdxEPKNS_12MachineInstrEj(ptr noundef %0, i32 noundef %1) #1 align 2 {
  %3 = alloca ptr, align 8
  %4 = alloca i32, align 4
  %5 = alloca ptr, align 8
  store ptr %0, ptr %3, align 8
  store i32 %1, ptr %4, align 4
  %6 = load ptr, ptr %3, align 8
  %7 = load i32, ptr %4, align 4
  %8 = call noundef nonnull align 8 dereferenceable(32) ptr @_ZNK4llvm12MachineInstr10getOperandEj(ptr noundef nonnull align 8 dereferenceable(70) %6, i32 noundef %7)
  store ptr %8, ptr %5, align 8
  %9 = load ptr, ptr %5, align 8
  %10 = call noundef zeroext i1 @_ZNK4llvm14MachineOperand5isImmEv(ptr noundef nonnull align 8 dereferenceable(32) %9)
  br i1 %10, label %11, label %25

11:                                               ; preds = %2
  %12 = load ptr, ptr %5, align 8
  %13 = call noundef i64 @_ZNK4llvm14MachineOperand6getImmEv(ptr noundef nonnull align 8 dereferenceable(32) %12)
  switch i64 %13, label %14 [
    i64 0, label %15
    i64 1, label %18
    i64 2, label %21
  ]

14:                                               ; preds = %11
  unreachable

15:                                               ; preds = %11
  %16 = load i32, ptr %4, align 4
  %17 = add i32 %16, 2
  store i32 %17, ptr %4, align 4
  br label %24

18:                                               ; preds = %11
  %19 = load i32, ptr %4, align 4
  %20 = add i32 %19, 3
  store i32 %20, ptr %4, align 4
  br label %24

21:                                               ; preds = %11
  %22 = load i32, ptr %4, align 4
  %23 = add i32 %22, 1
  store i32 %23, ptr %4, align 4
  br label %24

24:                                               ; preds = %21, %18, %15
  br label %25

25:                                               ; preds = %24, %2
  %26 = load i32, ptr %4, align 4
  %27 = add i32 %26, 1
  store i32 %27, ptr %4, align 4
  %28 = load i32, ptr %4, align 4
  ret i32 %28
}

; Function Attrs: mustprogress nounwind uwtable
define linkonce_odr hidden noundef i32 @_ZNK4llvm15StatepointOpers18getNumDeoptArgsIdxEv(ptr noundef nonnull align 8 dereferenceable(12) %0) #1 comdat align 2 {
  %2 = alloca ptr, align 8
  store ptr %0, ptr %2, align 8
  %3 = load ptr, ptr %2, align 8
  %4 = call noundef i32 @_ZNK4llvm15StatepointOpers9getVarIdxEv(ptr noundef nonnull align 8 dereferenceable(12) %3)
  %5 = add i32 %4, 5
  ret i32 %5
}

; Function Attrs: mustprogress nounwind uwtable
define internal noundef i64 @_ZL15getConstMetaValRKN4llvm12MachineInstrEj(ptr noundef nonnull align 8 dereferenceable(70) %0, i32 noundef %1) #1 {
  %3 = alloca ptr, align 8
  %4 = alloca i32, align 4
  %5 = alloca ptr, align 8
  store ptr %0, ptr %3, align 8
  store i32 %1, ptr %4, align 4
  %6 = load ptr, ptr %3, align 8
  %7 = load i32, ptr %4, align 4
  %8 = add i32 %7, 1
  %9 = call noundef nonnull align 8 dereferenceable(32) ptr @_ZNK4llvm12MachineInstr10getOperandEj(ptr noundef nonnull align 8 dereferenceable(70) %6, i32 noundef %8)
  store ptr %9, ptr %5, align 8
  %10 = load ptr, ptr %5, align 8
  %11 = call noundef i64 @_ZNK4llvm14MachineOperand6getImmEv(ptr noundef nonnull align 8 dereferenceable(32) %10)
  ret i64 %11
}

; Function Attrs: mustprogress nounwind uwtable
define dso_local noundef i32 @_ZN4llvm15StatepointOpers14getNumGCPtrIdxEv(ptr noundef nonnull align 8 dereferenceable(12) %0) #1 align 2 {
  %2 = alloca ptr, align 8
  %3 = alloca i32, align 4
  %4 = alloca i32, align 4
  store ptr %0, ptr %2, align 8
  %5 = load ptr, ptr %2, align 8
  %6 = call noundef i32 @_ZNK4llvm15StatepointOpers18getNumDeoptArgsIdxEv(ptr noundef nonnull align 8 dereferenceable(12) %5)
  store i32 %6, ptr %3, align 4
  %7 = getelementptr inbounds nuw %"class.llvm::StatepointOpers", ptr %5, i32 0, i32 0
  %8 = load ptr, ptr %7, align 8
  %9 = load i32, ptr %3, align 4
  %10 = sub i32 %9, 1
  %11 = call noundef i64 @_ZL15getConstMetaValRKN4llvm12MachineInstrEj(ptr noundef nonnull align 8 dereferenceable(70) %8, i32 noundef %10)
  %12 = trunc i64 %11 to i32
  store i32 %12, ptr %4, align 4
  %13 = load i32, ptr %3, align 4
  %14 = add i32 %13, 1
  store i32 %14, ptr %3, align 4
  br label %15

15:                                               ; preds = %19, %1
  %16 = load i32, ptr %4, align 4
  %17 = add i32 %16, -1
  store i32 %17, ptr %4, align 4
  %18 = icmp ne i32 %16, 0
  br i1 %18, label %19, label %24

19:                                               ; preds = %15
  %20 = getelementptr inbounds nuw %"class.llvm::StatepointOpers", ptr %5, i32 0, i32 0
  %21 = load ptr, ptr %20, align 8
  %22 = load i32, ptr %3, align 4
  %23 = call noundef i32 @_ZN4llvm9StackMaps17getNextMetaArgIdxEPKNS_12MachineInstrEj(ptr noundef %21, i32 noundef %22)
  store i32 %23, ptr %3, align 4
  br label %15, !llvm.loop !8

24:                                               ; preds = %15
  %25 = load i32, ptr %3, align 4
  %26 = add i32 %25, 1
  ret i32 %26
}

; Function Attrs: mustprogress nounwind uwtable
define dso_local noundef i32 @_ZN4llvm15StatepointOpers16getFirstGCPtrIdxEv(ptr noundef nonnull align 8 dereferenceable(12) %0) #1 align 2 {
  %2 = alloca i32, align 4
  %3 = alloca ptr, align 8
  %4 = alloca i32, align 4
  %5 = alloca i32, align 4
  store ptr %0, ptr %3, align 8
  %6 = load ptr, ptr %3, align 8
  %7 = call noundef i32 @_ZN4llvm15StatepointOpers14getNumGCPtrIdxEv(ptr noundef nonnull align 8 dereferenceable(12) %6)
  store i32 %7, ptr %4, align 4
  %8 = getelementptr inbounds nuw %"class.llvm::StatepointOpers", ptr %6, i32 0, i32 0
  %9 = load ptr, ptr %8, align 8
  %10 = load i32, ptr %4, align 4
  %11 = sub i32 %10, 1
  %12 = call noundef i64 @_ZL15getConstMetaValRKN4llvm12MachineInstrEj(ptr noundef nonnull align 8 dereferenceable(70) %9, i32 noundef %11)
  %13 = trunc i64 %12 to i32
  store i32 %13, ptr %5, align 4
  %14 = load i32, ptr %5, align 4
  %15 = icmp eq i32 %14, 0
  br i1 %15, label %16, label %17

16:                                               ; preds = %1
  store i32 -1, ptr %2, align 4
  br label %21

17:                                               ; preds = %1
  %18 = load i32, ptr %4, align 4
  %19 = add i32 %18, 1
  store i32 %19, ptr %4, align 4
  %20 = load i32, ptr %4, align 4
  store i32 %20, ptr %2, align 4
  br label %21

21:                                               ; preds = %17, %16
  %22 = load i32, ptr %2, align 4
  ret i32 %22
}